target datalayout = "e-m:e-p270:32:32-p271:32:32-p272:64:64-i64:64-i128:128-f80:128-n8:16:32:64-S128"
target triple = "x86_64-pc-linux-gnu"

%struct.prte_oob_base_t = type { i32, i32, i32, i32, i32, %struct.pmix_list_t, i32, %struct.pmix_list_t, i32, i32, i8, ptr, ptr, ptr, ptr, i8, ptr, ptr, ptr, ptr, %struct.pmix_list_t, ptr, i32, %struct.pmix_list_t, %struct.pmix_thread_t, i8, %struct.timeval, [2 x i32], i32, i32, i32, i32, i32 }
%struct.pmix_list_t = type { %struct.pmix_object_t, %struct.pmix_list_item_t, i64 }
%struct.pmix_object_t = type { %union.pthread_mutex_t, ptr, i32, %struct.pmix_tma }
%union.pthread_mutex_t = type { %struct.__pthread_mutex_s }
%struct.__pthread_mutex_s = type { i32, i32, i32, i32, i32, i16, i16, %struct.__pthread_internal_list }
%struct.__pthread_internal_list = type { ptr, ptr }
%struct.pmix_tma = type { ptr, ptr, ptr, ptr, ptr, ptr, ptr, ptr }
%struct.pmix_list_item_t = type { %struct.pmix_object_t, ptr, ptr, i32 }
%struct.pmix_thread_t = type { %struct.pmix_object_t, ptr, ptr, i64 }
%struct.timeval = type { i64, i64 }
%struct.prte_process_info_t = type { %struct.pmix_proc, %struct.pmix_proc, ptr, %struct.pmix_proc, i32, i32, i32, ptr, ptr, i32, i8, ptr, i16, ptr, ptr, i8, ptr, i8 }
%struct.pmix_proc = type { [256 x i8], i32 }
%struct.pmix_output_desc_t = type { i8, i8, i32, i8, i32, ptr, ptr, i32, ptr, i32, i8, i8, i8, i8, ptr, i32, i32 }
%struct.event = type { %struct.event_callback, %union.anon.0, i32, ptr, %union.anon.2, i16, i16, %struct.timeval }
%struct.event_callback = type { %struct.anon, i16, i8, i8, %union.anon, ptr }
%struct.anon = type { ptr, ptr }
%union.anon = type { ptr }
%union.anon.0 = type { %struct.anon.1 }
%struct.anon.1 = type { ptr, ptr }
%union.anon.2 = type { %struct.anon.3 }
%struct.anon.3 = type { %struct.anon.4, %struct.timeval }
%struct.anon.4 = type { ptr, ptr }
%struct.prte_oob_tcp_peer_t = type { %struct.pmix_list_item_t, %struct.pmix_proc, ptr, i32, %struct.pmix_list_t, ptr, i32, i32, %struct.event, i8, %struct.event, i8, %struct.event, i8, %struct.pmix_list_t, ptr, ptr }

@prte_oob_base = external global %struct.prte_oob_base_t, align 8
@prte_process_info = external global %struct.prte_process_info_t, align 8
@pmix_output_info = external global [0 x %struct.pmix_output_desc_t], align 8
@.str.28 = private unnamed_addr constant [8 x i8] c"UNKNOWN\00", align 1
@.str.67 = private unnamed_addr constant [35 x i8] c"%s waiting for connect ack from %s\00", align 1
@.str.68 = private unnamed_addr constant [68 x i8] c"%s-%s tcp_peer_recv_blocking: peer closed connection: peer state %d\00", align 1
@.str.69 = private unnamed_addr constant [41 x i8] c"%s connect ack received error %s from %s\00", align 1
@.str.70 = private unnamed_addr constant [58 x i8] c"%s tcp_peer_recv_blocking: recv() failed for %s: %s (%d)\0A\00", align 1
@.str.71 = private unnamed_addr constant [32 x i8] c"%s connect ack received from %s\00", align 1

; Function Attrs: nounwind uwtable
define internal zeroext i1 @tcp_peer_recv_blocking(ptr noundef %0, i32 noundef %1, ptr noundef %2, i64 noundef %3) #0 {
  %5 = alloca i1, align 1
  %6 = alloca ptr, align 8
  %7 = alloca i32, align 4
  %8 = alloca ptr, align 8
  %9 = alloca i64, align 8
  %10 = alloca ptr, align 8
  %11 = alloca i64, align 8
  %12 = alloca i32, align 4
  %13 = alloca i32, align 4
  store ptr %0, ptr %6, align 8, !tbaa !9
  store i32 %1, ptr %7, align 4, !tbaa !3
  store ptr %2, ptr %8, align 8, !tbaa !9
  store i64 %3, ptr %9, align 8, !tbaa !126
  call void @llvm.lifetime.start.p0(i64 8, ptr %10) #12
  %14 = load ptr, ptr %8, align 8, !tbaa !9
  store ptr %14, ptr %10, align 8, !tbaa !99
  call void @llvm.lifetime.start.p0(i64 8, ptr %11) #12
  store i64 0, ptr %11, align 8, !tbaa !126
  %15 = load i32, ptr @prte_oob_base, align 8, !tbaa !64
  %16 = icmp sge i32 %15, 0
  br i1 %16, label %17, label %39

17:                                               ; preds = %4
  %18 = load i32, ptr @prte_oob_base, align 8, !tbaa !64
  %19 = icmp slt i32 %18, 64
  br i1 %19, label %20, label %39

20:                                               ; preds = %17
  %21 = load i32, ptr @prte_oob_base, align 8, !tbaa !64
  %22 = sext i32 %21 to i64
  %23 = getelementptr inbounds [0 x %struct.pmix_output_desc_t], ptr @pmix_output_info, i64 0, i64 %22
  %24 = getelementptr inbounds nuw %struct.pmix_output_desc_t, ptr %23, i32 0, i32 2
  %25 = load i32, ptr %24, align 4, !tbaa !34
  %26 = icmp sge i32 %25, 7
  br i1 %26, label %27, label %39

27:                                               ; preds = %20
  %28 = load i32, ptr @prte_oob_base, align 8, !tbaa !64
  %29 = call ptr @prte_util_print_name_args(ptr noundef @prte_process_info)
  %30 = load ptr, ptr %6, align 8, !tbaa !9
  %31 = icmp eq ptr null, %30
  br i1 %31, label %32, label %33

32:                                               ; preds = %27
  br label %37

33:                                               ; preds = %27
  %34 = load ptr, ptr %6, align 8, !tbaa !9
  %35 = getelementptr inbounds nuw %struct.prte_oob_tcp_peer_t, ptr %34, i32 0, i32 1
  %36 = call ptr @prte_util_print_name_args(ptr noundef %35)
  br label %37

37:                                               ; preds = %33, %32
  %38 = phi ptr [ @.str.28, %32 ], [ %36, %33 ]
  call void (i32, ptr, ...) @pmix_output(i32 noundef %28, ptr noundef @.str.67, ptr noundef %29, ptr noundef %38)
  br label %39

39:                                               ; preds = %37, %20, %17, %4
  br label %40

40:                                               ; preds = %179, %177, %39
  %41 = load i64, ptr %11, align 8, !tbaa !126
  %42 = load i64, ptr %9, align 8, !tbaa !126
  %43 = icmp ult i64 %41, %42
  br i1 %43, label %44, label %180

44:                                               ; preds = %40
  call void @llvm.lifetime.start.p0(i64 4, ptr %12) #12
  %45 = load i32, ptr %7, align 4, !tbaa !3
  %46 = load ptr, ptr %10, align 8, !tbaa !99
  %47 = load i64, ptr %11, align 8, !tbaa !126
  %48 = getelementptr inbounds nuw i8, ptr %46, i64 %47
  %49 = load i64, ptr %9, align 8, !tbaa !126
  %50 = load i64, ptr %11, align 8, !tbaa !126
  %51 = sub i64 %49, %50
  %52 = call i64 @recv(i32 noundef %45, ptr noundef %48, i64 noundef %51, i32 noundef 0)
  %53 = trunc i64 %52 to i32
  store i32 %53, ptr %12, align 4, !tbaa !3
  %54 = load i32, ptr %12, align 4, !tbaa !3
  %55 = icmp eq i32 %54, 0
  br i1 %55, label %56, label %104

56:                                               ; preds = %44
  %57 = load i32, ptr @prte_oob_base, align 8, !tbaa !64
  %58 = icmp sge i32 %57, 0
  br i1 %58, label %59, label %90

59:                                               ; preds = %56
  %60 = load i32, ptr @prte_oob_base, align 8, !tbaa !64
  %61 = icmp slt i32 %60, 64
  br i1 %61, label %62, label %90

62:                                               ; preds = %59
  %63 = load i32, ptr @prte_oob_base, align 8, !tbaa !64
  %64 = sext i32 %63 to i64
  %65 = getelementptr inbounds [0 x %struct.pmix_output_desc_t], ptr @pmix_output_info, i64 0, i64 %64
  %66 = getelementptr inbounds nuw %struct.pmix_output_desc_t, ptr %65, i32 0, i32 2
  %67 = load i32, ptr %66, align 4, !tbaa !34
  %68 = icmp sge i32 %67, 7
  br i1 %68, label %69, label %90

69:                                               ; preds = %62
  %70 = load i32, ptr @prte_oob_base, align 8, !tbaa !64
  %71 = call ptr @prte_util_print_name_args(ptr noundef @prte_process_info)
  %72 = load ptr, ptr %6, align 8, !tbaa !9
  %73 = icmp eq ptr null, %72
  br i1 %73, label %74, label %75

74:                                               ; preds = %69
  br label %79

75:                                               ; preds = %69
  %76 = load ptr, ptr %6, align 8, !tbaa !9
  %77 = getelementptr inbounds nuw %struct.prte_oob_tcp_peer_t, ptr %76, i32 0, i32 1
  %78 = call ptr @prte_util_print_name_args(ptr noundef %77)
  br label %79

79:                                               ; preds = %75, %74
  %80 = phi ptr [ @.str.28, %74 ], [ %78, %75 ]
  %81 = load ptr, ptr %6, align 8, !tbaa !9
  %82 = icmp eq ptr null, %81
  br i1 %82, label %83, label %84

83:                                               ; preds = %79
  br label %88

84:                                               ; preds = %79
  %85 = load ptr, ptr %6, align 8, !tbaa !9
  %86 = getelementptr inbounds nuw %struct.prte_oob_tcp_peer_t, ptr %85, i32 0, i32 6
  %87 = load i32, ptr %86, align 8, !tbaa !98
  br label %88

88:                                               ; preds = %84, %83
  %89 = phi i32 [ 0, %83 ], [ %87, %84 ]
  call void (i32, ptr, ...) @pmix_output(i32 noundef %70, ptr noundef @.str.68, ptr noundef %71, ptr noundef %80, i32 noundef %89)
  br label %90

90:                                               ; preds = %88, %62, %59, %56
  %91 = load ptr, ptr %6, align 8, !tbaa !9
  %92 = icmp ne ptr null, %91
  br i1 %92, label %93, label %95

93:                                               ; preds = %90
  %94 = load ptr, ptr %6, align 8, !tbaa !9
  call void @prte_oob_tcp_peer_close(ptr noundef %94)
  br label %103

95:                                               ; preds = %90
  br label %96

96:                                               ; preds = %95
  %97 = load i32, ptr %7, align 4, !tbaa !3
  %98 = call i32 @shutdown(i32 noundef %97, i32 noundef 2) #12
  %99 = load i32, ptr %7, align 4, !tbaa !3
  %100 = call i32 @close(i32 noundef %99)
  br label %101

101:                                              ; preds = %96
  br label %102

102:                                              ; preds = %101
  br label %103

103:                                              ; preds = %102, %93
  store i1 false, ptr %5, align 1
  store i32 1, ptr %13, align 4
  br label %177

104:                                              ; preds = %44
  %105 = load i32, ptr %12, align 4, !tbaa !3
  %106 = icmp slt i32 %105, 0
  br i1 %106, label %107, label %172

107:                                              ; preds = %104
  %108 = call ptr @__errno_location() #13
  %109 = load i32, ptr %108, align 4, !tbaa !3
  %110 = icmp ne i32 %109, 4
  br i1 %110, label %111, label %171

111:                                              ; preds = %107
  %112 = call ptr @__errno_location() #13
  %113 = load i32, ptr %112, align 4, !tbaa !3
  %114 = icmp ne i32 %113, 11
  br i1 %114, label %115, label %171

115:                                              ; preds = %111
  %116 = call ptr @__errno_location() #13
  %117 = load i32, ptr %116, align 4, !tbaa !3
  %118 = icmp ne i32 %117, 11
  br i1 %118, label %119, label %171

119:                                              ; preds = %115
  %120 = load ptr, ptr %6, align 8, !tbaa !9
  %121 = icmp eq ptr null, %120
  br i1 %121, label %122, label %130

122:                                              ; preds = %119
  br label %123

123:                                              ; preds = %122
  %124 = load i32, ptr %7, align 4, !tbaa !3
  %125 = call i32 @shutdown(i32 noundef %124, i32 noundef 2) #12
  %126 = load i32, ptr %7, align 4, !tbaa !3
  %127 = call i32 @close(i32 noundef %126)
  br label %128

128:                                              ; preds = %123
  br label %129

129:                                              ; preds = %128
  store i1 false, ptr %5, align 1
  store i32 1, ptr %13, align 4
  br label %177

130:                                              ; preds = %119
  %131 = load ptr, ptr %6, align 8, !tbaa !9
  %132 = getelementptr inbounds nuw %struct.prte_oob_tcp_peer_t, ptr %131, i32 0, i32 6
  %133 = load i32, ptr %132, align 8, !tbaa !98
  %134 = icmp eq i32 %133, 4
  br i1 %134, label %135, label %158

135:                                              ; preds = %130
  %136 = load i32, ptr @prte_oob_base, align 8, !tbaa !64
  %137 = icmp sge i32 %136, 0
  br i1 %137, label %138, label %157

138:                                              ; preds = %135
  %139 = load i32, ptr @prte_oob_base, align 8, !tbaa !64
  %140 = icmp slt i32 %139, 64
  br i1 %140, label %141, label %157

141:                                              ; preds = %138
  %142 = load i32, ptr @prte_oob_base, align 8, !tbaa !64
  %143 = sext i32 %142 to i64
  %144 = getelementptr inbounds [0 x %struct.pmix_output_desc_t], ptr @pmix_output_info, i64 0, i64 %143
  %145 = getelementptr inbounds nuw %struct.pmix_output_desc_t, ptr %144, i32 0, i32 2
  %146 = load i32, ptr %145, align 4, !tbaa !34
  %147 = icmp sge i32 %146, 7
  br i1 %147, label %148, label %157

148:                                              ; preds = %141
  %149 = load i32, ptr @prte_oob_base, align 8, !tbaa !64
  %150 = call ptr @prte_util_print_name_args(ptr noundef @prte_process_info)
  %151 = call ptr @__errno_location() #13
  %152 = load i32, ptr %151, align 4, !tbaa !3
  %153 = call ptr @strerror(i32 noundef %152) #12
  %154 = load ptr, ptr %6, align 8, !tbaa !9
  %155 = getelementptr inbounds nuw %struct.prte_oob_tcp_peer_t, ptr %154, i32 0, i32 1
  %156 = call ptr @prte_util_print_name_args(ptr noundef %155)
  call void (i32, ptr, ...) @pmix_output(i32 noundef %149, ptr noundef @.str.69, ptr noundef %150, ptr noundef %153, ptr noundef %156)
  br label %157

157:                                              ; preds = %148, %141, %138, %135
  store i1 false, ptr %5, align 1
  store i32 1, ptr %13, align 4
  br label %177

158:                                              ; preds = %130
  %159 = call ptr @prte_util_print_name_args(ptr noundef @prte_process_info)
  %160 = load ptr, ptr %6, align 8, !tbaa !9
  %161 = getelementptr inbounds nuw %struct.prte_oob_tcp_peer_t, ptr %160, i32 0, i32 1
  %162 = call ptr @prte_util_print_name_args(ptr noundef %161)
  %163 = call ptr @__errno_location() #13
  %164 = load i32, ptr %163, align 4, !tbaa !3
  %165 = call ptr @strerror(i32 noundef %164) #12
  %166 = call ptr @__errno_location() #13
  %167 = load i32, ptr %166, align 4, !tbaa !3
  call void (i32, ptr, ...) @pmix_output(i32 noundef 0, ptr noundef @.str.70, ptr noundef %159, ptr noundef %162, ptr noundef %165, i32 noundef %167)
  %168 = load ptr, ptr %6, align 8, !tbaa !9
  %169 = getelementptr inbounds nuw %struct.prte_oob_tcp_peer_t, ptr %168, i32 0, i32 6
  store i32 6, ptr %169, align 8, !tbaa !98
  %170 = load ptr, ptr %6, align 8, !tbaa !9
  call void @prte_oob_tcp_peer_close(ptr noundef %170)
  store i1 false, ptr %5, align 1
  store i32 1, ptr %13, align 4
  br label %177

171:                                              ; preds = %115, %111, %107
  store i32 2, ptr %13, align 4
  br label %177, !llvm.loop !137

172:                                              ; preds = %104
  %173 = load i32, ptr %12, align 4, !tbaa !3
  %174 = sext i32 %173 to i64
  %175 = load i64, ptr %11, align 8, !tbaa !126
  %176 = add i64 %175, %174
  store i64 %176, ptr %11, align 8, !tbaa !126
  store i32 0, ptr %13, align 4
  br label %177

177:                                              ; preds = %172, %171, %158, %157, %129, %103
  call void @llvm.lifetime.end.p0(i64 4, ptr %12) #12
  %178 = load i32, ptr %13, align 4
  switch i32 %178, label %206 [
    i32 0, label %179
    i32 2, label %40
  ]

179:                                              ; preds = %177
  br label %40, !llvm.loop !137

180:                                              ; preds = %40
  %181 = load i32, ptr @prte_oob_base, align 8, !tbaa !64
  %182 = icmp sge i32 %181, 0
  br i1 %182, label %183, label %205

183:                                              ; preds = %180
  %184 = load i32, ptr @prte_oob_base, align 8, !tbaa !64
  %185 = icmp slt i32 %184, 64
  br i1 %185, label %186, label %205

186:                                              ; preds = %183
  %187 = load i32, ptr @prte_oob_base, align 8, !tbaa !64
  %188 = sext i32 %187 to i64
  %189 = getelementptr inbounds [0 x %struct.pmix_output_desc_t], ptr @pmix_output_info, i64 0, i64 %188
  %190 = getelementptr inbounds nuw %struct.pmix_output_desc_t, ptr %189, i32 0, i32 2
  %191 = load i32, ptr %190, align 4, !tbaa !34
  %192 = icmp sge i32 %191, 7
  br i1 %192, label %193, label %205

193:                                              ; preds = %186
  %194 = load i32, ptr @prte_oob_base, align 8, !tbaa !64
  %195 = call ptr @prte_util_print_name_args(ptr noundef @prte_process_info)
  %196 = load ptr, ptr %6, align 8, !tbaa !9
  %197 = icmp eq ptr null, %196
  br i1 %197, label %198, label %199

198:                                              ; preds = %193
  br label %203

199:                                              ; preds = %193
  %200 = load ptr, ptr %6, align 8, !tbaa !9
  %201 = getelementptr inbounds nuw %struct.prte_oob_tcp_peer_t, ptr %200, i32 0, i32 1
  %202 = call ptr @prte_util_print_name_args(ptr noundef %201)
  br label %203

203:                                              ; preds = %199, %198
  %204 = phi ptr [ @.str.28, %198 ], [ %202, %199 ]
  call void (i32, ptr, ...) @pmix_output(i32 noundef %194, ptr noundef @.str.71, ptr noundef %195, ptr noundef %204)
  br label %205

205:                                              ; preds = %203, %186, %183, %180
  store i1 true, ptr %5, align 1
  store i32 1, ptr %13, align 4
  br label %206

206:                                              ; preds = %205, %177
  call void @llvm.lifetime.end.p0(i64 8, ptr %11) #12
  call void @llvm.lifetime.end.p0(i64 8, ptr %10) #12
  %207 = load i1, ptr %5, align 1
  ret i1 %207
}