; Function Attrs: nounwind uwtable
define internal fastcc noundef zeroext i1 @tcp_peer_recv_blocking(ptr noundef %0, i32 noundef %1, ptr noundef nonnull %2, i64 noundef range(i64 0, 4294967296) %3) unnamed_addr #0 {
  %5 = load i32, ptr @prte_oob_base, align 8, !tbaa !60
  %or.cond = icmp ult i32 %5, 64
  br i1 %or.cond, label %6, label %19

6:                                                ; preds = %4
  %7 = zext nneg i32 %5 to i64
  %8 = getelementptr inbounds nuw [0 x %struct.pmix_output_desc_t], ptr @pmix_output_info, i64 0, i64 %7, i32 2
  %9 = load i32, ptr %8, align 4, !tbaa !32
  %10 = icmp sgt i32 %9, 6
  br i1 %10, label %11, label %19

11:                                               ; preds = %6
  %12 = tail call ptr @prte_util_print_name_args(ptr noundef nonnull @prte_process_info) #15
  %13 = icmp eq ptr %0, null
  br i1 %13, label %17, label %14

14:                                               ; preds = %11
  %15 = getelementptr inbounds nuw i8, ptr %0, i64 144
  %16 = tail call ptr @prte_util_print_name_args(ptr noundef nonnull %15) #15
  br label %17

17:                                               ; preds = %11, %14
  %18 = phi ptr [ %16, %14 ], [ @.str.28, %11 ]
  tail call void (i32, ptr, ...) @pmix_output(i32 noundef %5, ptr noundef nonnull @.str.67, ptr noundef %12, ptr noundef %18) #15
  br label %19

19:                                               ; preds = %17, %6, %4
  %20 = icmp eq i64 %3, 0
  br i1 %20, label %._crit_edge, label %.lr.ph

.lr.ph:                                           ; preds = %19, %85
  %.04161 = phi i64 [ %.142, %85 ], [ 0, %19 ]
  %21 = getelementptr inbounds nuw i8, ptr %2, i64 %.04161
  %22 = sub nuw nsw i64 %3, %.04161
  %23 = tail call i64 @recv(i32 noundef %1, ptr noundef nonnull %21, i64 noundef %22, i32 noundef 0) #15
  %24 = trunc i64 %23 to i32
  %25 = icmp eq i32 %24, 0
  br i1 %25, label %26, label %48

26:                                               ; preds = %.lr.ph
  %27 = load i32, ptr @prte_oob_base, align 8, !tbaa !60
  %or.cond3 = icmp ult i32 %27, 64
  br i1 %or.cond3, label %28, label %43

28:                                               ; preds = %26
  %29 = zext nneg i32 %27 to i64
  %30 = getelementptr inbounds nuw [0 x %struct.pmix_output_desc_t], ptr @pmix_output_info, i64 0, i64 %29, i32 2
  %31 = load i32, ptr %30, align 4, !tbaa !32
  %32 = icmp sgt i32 %31, 6
  br i1 %32, label %33, label %43

33:                                               ; preds = %28
  %34 = tail call ptr @prte_util_print_name_args(ptr noundef nonnull @prte_process_info) #15
  %35 = icmp eq ptr %0, null
  br i1 %35, label %.thread, label %36

36:                                               ; preds = %33
  %37 = getelementptr inbounds nuw i8, ptr %0, i64 144
  %38 = tail call ptr @prte_util_print_name_args(ptr noundef nonnull %37) #15
  %39 = getelementptr inbounds nuw i8, ptr %0, i64 704
  %40 = load i32, ptr %39, align 8, !tbaa !95
  br label %.thread

.thread:                                          ; preds = %33, %36
  %41 = phi ptr [ %38, %36 ], [ @.str.28, %33 ]
  %42 = phi i32 [ %40, %36 ], [ 0, %33 ]
  tail call void (i32, ptr, ...) @pmix_output(i32 noundef %27, ptr noundef nonnull @.str.68, ptr noundef %34, ptr noundef %41, i32 noundef %42) #15
  br label %43

43:                                               ; preds = %.thread, %28, %26
  %.not54 = icmp eq ptr %0, null
  br i1 %.not54, label %45, label %44

44:                                               ; preds = %43
  tail call void @prte_oob_tcp_peer_close(ptr noundef nonnull %0)
  br label %.thread55

45:                                               ; preds = %43
  %46 = tail call i32 @shutdown(i32 noundef %1, i32 noundef 2) #15
  %47 = tail call i32 @close(i32 noundef %1) #15
  br label %.thread55

48:                                               ; preds = %.lr.ph
  %49 = icmp slt i32 %24, 0
  br i1 %49, label %50, label %82

50:                                               ; preds = %48
  %51 = tail call ptr @__errno_location() #16
  %52 = load i32, ptr %51, align 4, !tbaa !12
  switch i32 %52, label %53 [
    i32 4, label %85
    i32 11, label %85
  ], !llvm.loop !110

53:                                               ; preds = %50
  %54 = icmp eq ptr %0, null
  br i1 %54, label %55, label %58

55:                                               ; preds = %53
  %56 = tail call i32 @shutdown(i32 noundef %1, i32 noundef 2) #15
  %57 = tail call i32 @close(i32 noundef %1) #15
  br label %.thread55

58:                                               ; preds = %53
  %59 = getelementptr inbounds nuw i8, ptr %0, i64 704
  %60 = load i32, ptr %59, align 8, !tbaa !95
  %61 = icmp eq i32 %60, 4
  br i1 %61, label %62, label %75

62:                                               ; preds = %58
  %63 = load i32, ptr @prte_oob_base, align 8, !tbaa !60
  %or.cond5 = icmp ult i32 %63, 64
  br i1 %or.cond5, label %64, label %.thread55

64:                                               ; preds = %62
  %65 = zext nneg i32 %63 to i64
  %66 = getelementptr inbounds nuw [0 x %struct.pmix_output_desc_t], ptr @pmix_output_info, i64 0, i64 %65, i32 2
  %67 = load i32, ptr %66, align 4, !tbaa !32
  %68 = icmp sgt i32 %67, 6
  br i1 %68, label %69, label %.thread55

69:                                               ; preds = %64
  %70 = tail call ptr @prte_util_print_name_args(ptr noundef nonnull @prte_process_info) #15
  %71 = load i32, ptr %51, align 4, !tbaa !12
  %72 = tail call ptr @strerror(i32 noundef %71) #15
  %73 = getelementptr inbounds nuw i8, ptr %0, i64 144
  %74 = tail call ptr @prte_util_print_name_args(ptr noundef nonnull %73) #15
  tail call void (i32, ptr, ...) @pmix_output(i32 noundef %63, ptr noundef nonnull @.str.69, ptr noundef %70, ptr noundef %72, ptr noundef %74) #15
  br label %.thread55

75:                                               ; preds = %58
  %76 = tail call ptr @prte_util_print_name_args(ptr noundef nonnull @prte_process_info) #15
  %77 = getelementptr inbounds nuw i8, ptr %0, i64 144
  %78 = tail call ptr @prte_util_print_name_args(ptr noundef nonnull %77) #15
  %79 = load i32, ptr %51, align 4, !tbaa !12
  %80 = tail call ptr @strerror(i32 noundef %79) #15
  %81 = load i32, ptr %51, align 4, !tbaa !12
  tail call void (i32, ptr, ...) @pmix_output(i32 noundef 0, ptr noundef nonnull @.str.70, ptr noundef %76, ptr noundef %78, ptr noundef %80, i32 noundef %81) #15
  store i32 6, ptr %59, align 8, !tbaa !95
  tail call void @prte_oob_tcp_peer_close(ptr noundef nonnull %0)
  br label %.thread55

82:                                               ; preds = %48
  %83 = and i64 %23, 2147483647
  %84 = add i64 %83, %.04161
  br label %85

85:                                               ; preds = %50, %50, %82
  %.142 = phi i64 [ %84, %82 ], [ %.04161, %50 ], [ %.04161, %50 ]
  %.not = icmp ult i64 %.142, %3
  br i1 %.not, label %.lr.ph, label %._crit_edge

._crit_edge:                                      ; preds = %85, %19
  %86 = load i32, ptr @prte_oob_base, align 8, !tbaa !60
  %or.cond7 = icmp ult i32 %86, 64
  br i1 %or.cond7, label %87, label %.thread55

87:                                               ; preds = %._crit_edge
  %88 = zext nneg i32 %86 to i64
  %89 = getelementptr inbounds nuw [0 x %struct.pmix_output_desc_t], ptr @pmix_output_info, i64 0, i64 %88, i32 2
  %90 = load i32, ptr %89, align 4, !tbaa !32
  %91 = icmp sgt i32 %90, 6
  br i1 %91, label %92, label %.thread55

92:                                               ; preds = %87
  %93 = tail call ptr @prte_util_print_name_args(ptr noundef nonnull @prte_process_info) #15
  %94 = icmp eq ptr %0, null
  br i1 %94, label %98, label %95

95:                                               ; preds = %92
  %96 = getelementptr inbounds nuw i8, ptr %0, i64 144
  %97 = tail call ptr @prte_util_print_name_args(ptr noundef nonnull %96) #15
  br label %98

98:                                               ; preds = %92, %95
  %99 = phi ptr [ %97, %95 ], [ @.str.28, %92 ]
  tail call void (i32, ptr, ...) @pmix_output(i32 noundef %86, ptr noundef nonnull @.str.71, ptr noundef %93, ptr noundef %99) #15
  br label %.thread55

.thread55:                                        ; preds = %62, %64, %69, %44, %45, %75, %55, %._crit_edge, %87, %98
  %100 = phi i1 [ false, %62 ], [ false, %64 ], [ false, %69 ], [ false, %44 ], [ false, %45 ], [ false, %75 ], [ false, %55 ], [ true, %._crit_edge ], [ true, %87 ], [ true, %98 ]
  ret i1 %100
}